target datalayout = "e-m:e-p270:32:32-p271:32:32-p272:64:64-i64:64-i128:128-f80:128-n8:16:32:64-S128"
target triple = "x86_64-pc-linux-gnu"

; Function Attrs: nounwind uwtable
define internal void @map_val_34_to_20(ptr noundef %0) #0 {
  %2 = alloca ptr, align 8
  store ptr %0, ptr %2, align 8, !tbaa !9
  %3 = load ptr, ptr %2, align 8, !tbaa !9
  %4 = getelementptr inbounds i32, ptr %3, i64 0
  %5 = load i32, ptr %4, align 4, !tbaa !11
  %6 = load ptr, ptr %2, align 8, !tbaa !9
  %7 = getelementptr inbounds i32, ptr %6, i64 1
  %8 = load i32, ptr %7, align 4, !tbaa !11
  %9 = ashr i32 %8, 1
  %10 = add i32 %5, %9
  %11 = zext i32 %10 to i64
  %12 = mul nsw i64 %11, 1431655765
  %13 = add nsw i64 %12, 1073741824
  %14 = ashr i64 %13, 31
  %15 = trunc i64 %14 to i32
  %16 = load ptr, ptr %2, align 8, !tbaa !9
  %17 = getelementptr inbounds i32, ptr %16, i64 0
  store i32 %15, ptr %17, align 4, !tbaa !11
  %18 = load ptr, ptr %2, align 8, !tbaa !9
  %19 = getelementptr inbounds i32, ptr %18, i64 1
  %20 = load i32, ptr %19, align 4, !tbaa !11
  %21 = ashr i32 %20, 1
  %22 = load ptr, ptr %2, align 8, !tbaa !9
  %23 = getelementptr inbounds i32, ptr %22, i64 2
  %24 = load i32, ptr %23, align 4, !tbaa !11
  %25 = add i32 %21, %24
  %26 = zext i32 %25 to i64
  %27 = mul nsw i64 %26, 1431655765
  %28 = add nsw i64 %27, 1073741824
  %29 = ashr i64 %28, 31
  %30 = trunc i64 %29 to i32
  %31 = load ptr, ptr %2, align 8, !tbaa !9
  %32 = getelementptr inbounds i32, ptr %31, i64 1
  store i32 %30, ptr %32, align 4, !tbaa !11
  %33 = load ptr, ptr %2, align 8, !tbaa !9
  %34 = getelementptr inbounds i32, ptr %33, i64 3
  %35 = load i32, ptr %34, align 4, !tbaa !11
  %36 = load ptr, ptr %2, align 8, !tbaa !9
  %37 = getelementptr inbounds i32, ptr %36, i64 4
  %38 = load i32, ptr %37, align 4, !tbaa !11
  %39 = ashr i32 %38, 1
  %40 = add i32 %35, %39
  %41 = zext i32 %40 to i64
  %42 = mul nsw i64 %41, 1431655765
  %43 = add nsw i64 %42, 1073741824
  %44 = ashr i64 %43, 31
  %45 = trunc i64 %44 to i32
  %46 = load ptr, ptr %2, align 8, !tbaa !9
  %47 = getelementptr inbounds i32, ptr %46, i64 2
  store i32 %45, ptr %47, align 4, !tbaa !11
  %48 = load ptr, ptr %2, align 8, !tbaa !9
  %49 = getelementptr inbounds i32, ptr %48, i64 4
  %50 = load i32, ptr %49, align 4, !tbaa !11
  %51 = ashr i32 %50, 1
  %52 = load ptr, ptr %2, align 8, !tbaa !9
  %53 = getelementptr inbounds i32, ptr %52, i64 5
  %54 = load i32, ptr %53, align 4, !tbaa !11
  %55 = add i32 %51, %54
  %56 = zext i32 %55 to i64
  %57 = mul nsw i64 %56, 1431655765
  %58 = add nsw i64 %57, 1073741824
  %59 = ashr i64 %58, 31
  %60 = trunc i64 %59 to i32
  %61 = load ptr, ptr %2, align 8, !tbaa !9
  %62 = getelementptr inbounds i32, ptr %61, i64 3
  store i32 %60, ptr %62, align 4, !tbaa !11
  %63 = load ptr, ptr %2, align 8, !tbaa !9
  %64 = getelementptr inbounds i32, ptr %63, i64 6
  %65 = load i32, ptr %64, align 4, !tbaa !11
  %66 = ashr i32 %65, 1
  %67 = load ptr, ptr %2, align 8, !tbaa !9
  %68 = getelementptr inbounds i32, ptr %67, i64 7
  %69 = load i32, ptr %68, align 4, !tbaa !11
  %70 = ashr i32 %69, 1
  %71 = add nsw i32 %66, %70
  %72 = load ptr, ptr %2, align 8, !tbaa !9
  %73 = getelementptr inbounds i32, ptr %72, i64 4
  store i32 %71, ptr %73, align 4, !tbaa !11
  %74 = load ptr, ptr %2, align 8, !tbaa !9
  %75 = getelementptr inbounds i32, ptr %74, i64 8
  %76 = load i32, ptr %75, align 4, !tbaa !11
  %77 = ashr i32 %76, 1
  %78 = load ptr, ptr %2, align 8, !tbaa !9
  %79 = getelementptr inbounds i32, ptr %78, i64 9
  %80 = load i32, ptr %79, align 4, !tbaa !11
  %81 = ashr i32 %80, 1
  %82 = add nsw i32 %77, %81
  %83 = load ptr, ptr %2, align 8, !tbaa !9
  %84 = getelementptr inbounds i32, ptr %83, i64 5
  store i32 %82, ptr %84, align 4, !tbaa !11
  %85 = load ptr, ptr %2, align 8, !tbaa !9
  %86 = getelementptr inbounds i32, ptr %85, i64 10
  %87 = load i32, ptr %86, align 4, !tbaa !11
  %88 = load ptr, ptr %2, align 8, !tbaa !9
  %89 = getelementptr inbounds i32, ptr %88, i64 6
  store i32 %87, ptr %89, align 4, !tbaa !11
  %90 = load ptr, ptr %2, align 8, !tbaa !9
  %91 = getelementptr inbounds i32, ptr %90, i64 11
  %92 = load i32, ptr %91, align 4, !tbaa !11
  %93 = load ptr, ptr %2, align 8, !tbaa !9
  %94 = getelementptr inbounds i32, ptr %93, i64 7
  store i32 %92, ptr %94, align 4, !tbaa !11
  %95 = load ptr, ptr %2, align 8, !tbaa !9
  %96 = getelementptr inbounds i32, ptr %95, i64 12
  %97 = load i32, ptr %96, align 4, !tbaa !11
  %98 = ashr i32 %97, 1
  %99 = load ptr, ptr %2, align 8, !tbaa !9
  %100 = getelementptr inbounds i32, ptr %99, i64 13
  %101 = load i32, ptr %100, align 4, !tbaa !11
  %102 = ashr i32 %101, 1
  %103 = add nsw i32 %98, %102
  %104 = load ptr, ptr %2, align 8, !tbaa !9
  %105 = getelementptr inbounds i32, ptr %104, i64 8
  store i32 %103, ptr %105, align 4, !tbaa !11
  %106 = load ptr, ptr %2, align 8, !tbaa !9
  %107 = getelementptr inbounds i32, ptr %106, i64 14
  %108 = load i32, ptr %107, align 4, !tbaa !11
  %109 = ashr i32 %108, 1
  %110 = load ptr, ptr %2, align 8, !tbaa !9
  %111 = getelementptr inbounds i32, ptr %110, i64 15
  %112 = load i32, ptr %111, align 4, !tbaa !11
  %113 = ashr i32 %112, 1
  %114 = add nsw i32 %109, %113
  %115 = load ptr, ptr %2, align 8, !tbaa !9
  %116 = getelementptr inbounds i32, ptr %115, i64 9
  store i32 %114, ptr %116, align 4, !tbaa !11
  %117 = load ptr, ptr %2, align 8, !tbaa !9
  %118 = getelementptr inbounds i32, ptr %117, i64 16
  %119 = load i32, ptr %118, align 4, !tbaa !11
  %120 = load ptr, ptr %2, align 8, !tbaa !9
  %121 = getelementptr inbounds i32, ptr %120, i64 10
  store i32 %119, ptr %121, align 4, !tbaa !11
  %122 = load ptr, ptr %2, align 8, !tbaa !9
  %123 = getelementptr inbounds i32, ptr %122, i64 17
  %124 = load i32, ptr %123, align 4, !tbaa !11
  %125 = load ptr, ptr %2, align 8, !tbaa !9
  %126 = getelementptr inbounds i32, ptr %125, i64 11
  store i32 %124, ptr %126, align 4, !tbaa !11
  %127 = load ptr, ptr %2, align 8, !tbaa !9
  %128 = getelementptr inbounds i32, ptr %127, i64 18
  %129 = load i32, ptr %128, align 4, !tbaa !11
  %130 = load ptr, ptr %2, align 8, !tbaa !9
  %131 = getelementptr inbounds i32, ptr %130, i64 12
  store i32 %129, ptr %131, align 4, !tbaa !11
  %132 = load ptr, ptr %2, align 8, !tbaa !9
  %133 = getelementptr inbounds i32, ptr %132, i64 19
  %134 = load i32, ptr %133, align 4, !tbaa !11
  %135 = load ptr, ptr %2, align 8, !tbaa !9
  %136 = getelementptr inbounds i32, ptr %135, i64 13
  store i32 %134, ptr %136, align 4, !tbaa !11
  %137 = load ptr, ptr %2, align 8, !tbaa !9
  %138 = getelementptr inbounds i32, ptr %137, i64 20
  %139 = load i32, ptr %138, align 4, !tbaa !11
  %140 = ashr i32 %139, 1
  %141 = load ptr, ptr %2, align 8, !tbaa !9
  %142 = getelementptr inbounds i32, ptr %141, i64 21
  %143 = load i32, ptr %142, align 4, !tbaa !11
  %144 = ashr i32 %143, 1
  %145 = add nsw i32 %140, %144
  %146 = load ptr, ptr %2, align 8, !tbaa !9
  %147 = getelementptr inbounds i32, ptr %146, i64 14
  store i32 %145, ptr %147, align 4, !tbaa !11
  %148 = load ptr, ptr %2, align 8, !tbaa !9
  %149 = getelementptr inbounds i32, ptr %148, i64 22
  %150 = load i32, ptr %149, align 4, !tbaa !11
  %151 = ashr i32 %150, 1
  %152 = load ptr, ptr %2, align 8, !tbaa !9
  %153 = getelementptr inbounds i32, ptr %152, i64 23
  %154 = load i32, ptr %153, align 4, !tbaa !11
  %155 = ashr i32 %154, 1
  %156 = add nsw i32 %151, %155
  %157 = load ptr, ptr %2, align 8, !tbaa !9
  %158 = getelementptr inbounds i32, ptr %157, i64 15
  store i32 %156, ptr %158, align 4, !tbaa !11
  %159 = load ptr, ptr %2, align 8, !tbaa !9
  %160 = getelementptr inbounds i32, ptr %159, i64 24
  %161 = load i32, ptr %160, align 4, !tbaa !11
  %162 = ashr i32 %161, 1
  %163 = load ptr, ptr %2, align 8, !tbaa !9
  %164 = getelementptr inbounds i32, ptr %163, i64 25
  %165 = load i32, ptr %164, align 4, !tbaa !11
  %166 = ashr i32 %165, 1
  %167 = add nsw i32 %162, %166
  %168 = load ptr, ptr %2, align 8, !tbaa !9
  %169 = getelementptr inbounds i32, ptr %168, i64 16
  store i32 %167, ptr %169, align 4, !tbaa !11
  %170 = load ptr, ptr %2, align 8, !tbaa !9
  %171 = getelementptr inbounds i32, ptr %170, i64 26
  %172 = load i32, ptr %171, align 4, !tbaa !11
  %173 = ashr i32 %172, 1
  %174 = load ptr, ptr %2, align 8, !tbaa !9
  %175 = getelementptr inbounds i32, ptr %174, i64 27
  %176 = load i32, ptr %175, align 4, !tbaa !11
  %177 = ashr i32 %176, 1
  %178 = add nsw i32 %173, %177
  %179 = load ptr, ptr %2, align 8, !tbaa !9
  %180 = getelementptr inbounds i32, ptr %179, i64 17
  store i32 %178, ptr %180, align 4, !tbaa !11
  %181 = load ptr, ptr %2, align 8, !tbaa !9
  %182 = getelementptr inbounds i32, ptr %181, i64 28
  %183 = load i32, ptr %182, align 4, !tbaa !11
  %184 = add nsw i32 %183, 2
  %185 = ashr i32 %184, 2
  %186 = load ptr, ptr %2, align 8, !tbaa !9
  %187 = getelementptr inbounds i32, ptr %186, i64 29
  %188 = load i32, ptr %187, align 4, !tbaa !11
  %189 = add nsw i32 %188, 2
  %190 = ashr i32 %189, 2
  %191 = add nsw i32 %185, %190
  %192 = load ptr, ptr %2, align 8, !tbaa !9
  %193 = getelementptr inbounds i32, ptr %192, i64 30
  %194 = load i32, ptr %193, align 4, !tbaa !11
  %195 = add nsw i32 %194, 2
  %196 = ashr i32 %195, 2
  %197 = add nsw i32 %191, %196
  %198 = load ptr, ptr %2, align 8, !tbaa !9
  %199 = getelementptr inbounds i32, ptr %198, i64 31
  %200 = load i32, ptr %199, align 4, !tbaa !11
  %201 = add nsw i32 %200, 2
  %202 = ashr i32 %201, 2
  %203 = add nsw i32 %197, %202
  %204 = load ptr, ptr %2, align 8, !tbaa !9
  %205 = getelementptr inbounds i32, ptr %204, i64 18
  store i32 %203, ptr %205, align 4, !tbaa !11
  %206 = load ptr, ptr %2, align 8, !tbaa !9
  %207 = getelementptr inbounds i32, ptr %206, i64 32
  %208 = load i32, ptr %207, align 4, !tbaa !11
  %209 = ashr i32 %208, 1
  %210 = load ptr, ptr %2, align 8, !tbaa !9
  %211 = getelementptr inbounds i32, ptr %210, i64 33
  %212 = load i32, ptr %211, align 4, !tbaa !11
  %213 = ashr i32 %212, 1
  %214 = add nsw i32 %209, %213
  %215 = load ptr, ptr %2, align 8, !tbaa !9
  %216 = getelementptr inbounds i32, ptr %215, i64 19
  store i32 %214, ptr %216, align 4, !tbaa !11
  ret void
}