; Function Attrs: mustprogress nofree norecurse nosync nounwind willreturn memory(argmem: readwrite) uwtable
define internal fastcc void @map_val_34_to_20(ptr noundef captures(none) %0) unnamed_addr #6 {
  %2 = load i32, ptr %0, align 4, !tbaa !12
  %3 = getelementptr inbounds nuw i8, ptr %0, i64 4
  %4 = load i32, ptr %3, align 4, !tbaa !12
  %5 = ashr i32 %4, 1
  %6 = add i32 %5, %2
  %7 = zext i32 %6 to i64
  %8 = mul nuw nsw i64 %7, 1431655765
  %9 = add nuw nsw i64 %8, 1073741824
  %10 = lshr i64 %9, 31
  %11 = trunc nuw i64 %10 to i32
  store i32 %11, ptr %0, align 4, !tbaa !12
  %12 = getelementptr inbounds nuw i8, ptr %0, i64 8
  %13 = load i32, ptr %12, align 4, !tbaa !12
  %14 = add i32 %13, %5
  %15 = zext i32 %14 to i64
  %16 = mul nuw nsw i64 %15, 1431655765
  %17 = add nuw nsw i64 %16, 1073741824
  %18 = lshr i64 %17, 31
  %19 = trunc nuw i64 %18 to i32
  store i32 %19, ptr %3, align 4, !tbaa !12
  %20 = getelementptr inbounds nuw i8, ptr %0, i64 12
  %21 = load i32, ptr %20, align 4, !tbaa !12
  %22 = getelementptr inbounds nuw i8, ptr %0, i64 16
  %23 = load i32, ptr %22, align 4, !tbaa !12
  %24 = ashr i32 %23, 1
  %25 = add i32 %24, %21
  %26 = zext i32 %25 to i64
  %27 = mul nuw nsw i64 %26, 1431655765
  %28 = add nuw nsw i64 %27, 1073741824
  %29 = lshr i64 %28, 31
  %30 = trunc nuw i64 %29 to i32
  store i32 %30, ptr %12, align 4, !tbaa !12
  %31 = getelementptr inbounds nuw i8, ptr %0, i64 20
  %32 = load i32, ptr %31, align 4, !tbaa !12
  %33 = add i32 %32, %24
  %34 = zext i32 %33 to i64
  %35 = mul nuw nsw i64 %34, 1431655765
  %36 = add nuw nsw i64 %35, 1073741824
  %37 = lshr i64 %36, 31
  %38 = trunc nuw i64 %37 to i32
  store i32 %38, ptr %20, align 4, !tbaa !12
  %39 = getelementptr inbounds nuw i8, ptr %0, i64 24
  %40 = load i32, ptr %39, align 4, !tbaa !12
  %41 = ashr i32 %40, 1
  %42 = getelementptr inbounds nuw i8, ptr %0, i64 28
  %43 = load i32, ptr %42, align 4, !tbaa !12
  %44 = ashr i32 %43, 1
  %45 = add nsw i32 %44, %41
  store i32 %45, ptr %22, align 4, !tbaa !12
  %46 = getelementptr inbounds nuw i8, ptr %0, i64 32
  %47 = load i32, ptr %46, align 4, !tbaa !12
  %48 = ashr i32 %47, 1
  %49 = getelementptr inbounds nuw i8, ptr %0, i64 36
  %50 = load i32, ptr %49, align 4, !tbaa !12
  %51 = ashr i32 %50, 1
  %52 = add nsw i32 %51, %48
  store i32 %52, ptr %31, align 4, !tbaa !12
  %53 = getelementptr inbounds nuw i8, ptr %0, i64 40
  %54 = load i32, ptr %53, align 4, !tbaa !12
  store i32 %54, ptr %39, align 4, !tbaa !12
  %55 = getelementptr inbounds nuw i8, ptr %0, i64 44
  %56 = load i32, ptr %55, align 4, !tbaa !12
  store i32 %56, ptr %42, align 4, !tbaa !12
  %57 = getelementptr inbounds nuw i8, ptr %0, i64 48
  %58 = load i32, ptr %57, align 4, !tbaa !12
  %59 = ashr i32 %58, 1
  %60 = getelementptr inbounds nuw i8, ptr %0, i64 52
  %61 = load i32, ptr %60, align 4, !tbaa !12
  %62 = ashr i32 %61, 1
  %63 = add nsw i32 %62, %59
  store i32 %63, ptr %46, align 4, !tbaa !12
  %64 = getelementptr inbounds nuw i8, ptr %0, i64 56
  %65 = load i32, ptr %64, align 4, !tbaa !12
  %66 = ashr i32 %65, 1
  %67 = getelementptr inbounds nuw i8, ptr %0, i64 60
  %68 = load i32, ptr %67, align 4, !tbaa !12
  %69 = ashr i32 %68, 1
  %70 = add nsw i32 %69, %66
  store i32 %70, ptr %49, align 4, !tbaa !12
  %71 = getelementptr inbounds nuw i8, ptr %0, i64 64
  %72 = load i32, ptr %71, align 4, !tbaa !12
  store i32 %72, ptr %53, align 4, !tbaa !12
  %73 = getelementptr inbounds nuw i8, ptr %0, i64 68
  %74 = load i32, ptr %73, align 4, !tbaa !12
  store i32 %74, ptr %55, align 4, !tbaa !12
  %75 = getelementptr inbounds nuw i8, ptr %0, i64 72
  %76 = load i32, ptr %75, align 4, !tbaa !12
  store i32 %76, ptr %57, align 4, !tbaa !12
  %77 = getelementptr inbounds nuw i8, ptr %0, i64 76
  %78 = load i32, ptr %77, align 4, !tbaa !12
  store i32 %78, ptr %60, align 4, !tbaa !12
  %79 = getelementptr inbounds nuw i8, ptr %0, i64 80
  %80 = load i32, ptr %79, align 4, !tbaa !12
  %81 = ashr i32 %80, 1
  %82 = getelementptr inbounds nuw i8, ptr %0, i64 84
  %83 = load i32, ptr %82, align 4, !tbaa !12
  %84 = ashr i32 %83, 1
  %85 = add nsw i32 %84, %81
  store i32 %85, ptr %64, align 4, !tbaa !12
  %86 = getelementptr inbounds nuw i8, ptr %0, i64 88
  %87 = load i32, ptr %86, align 4, !tbaa !12
  %88 = ashr i32 %87, 1
  %89 = getelementptr inbounds nuw i8, ptr %0, i64 92
  %90 = load i32, ptr %89, align 4, !tbaa !12
  %91 = ashr i32 %90, 1
  %92 = add nsw i32 %91, %88
  store i32 %92, ptr %67, align 4, !tbaa !12
  %93 = getelementptr inbounds nuw i8, ptr %0, i64 96
  %94 = load i32, ptr %93, align 4, !tbaa !12
  %95 = ashr i32 %94, 1
  %96 = getelementptr inbounds nuw i8, ptr %0, i64 100
  %97 = load i32, ptr %96, align 4, !tbaa !12
  %98 = ashr i32 %97, 1
  %99 = add nsw i32 %98, %95
  store i32 %99, ptr %71, align 4, !tbaa !12
  %100 = getelementptr inbounds nuw i8, ptr %0, i64 104
  %101 = load i32, ptr %100, align 4, !tbaa !12
  %102 = ashr i32 %101, 1
  %103 = getelementptr inbounds nuw i8, ptr %0, i64 108
  %104 = load i32, ptr %103, align 4, !tbaa !12
  %105 = ashr i32 %104, 1
  %106 = add nsw i32 %105, %102
  store i32 %106, ptr %73, align 4, !tbaa !12
  %107 = getelementptr inbounds nuw i8, ptr %0, i64 112
  %108 = load i32, ptr %107, align 4, !tbaa !12
  %109 = add nsw i32 %108, 2
  %110 = ashr i32 %109, 2
  %111 = getelementptr inbounds nuw i8, ptr %0, i64 116
  %112 = load i32, ptr %111, align 4, !tbaa !12
  %113 = add nsw i32 %112, 2
  %114 = ashr i32 %113, 2
  %115 = add nsw i32 %114, %110
  %116 = getelementptr inbounds nuw i8, ptr %0, i64 120
  %117 = load i32, ptr %116, align 4, !tbaa !12
  %118 = add nsw i32 %117, 2
  %119 = ashr i32 %118, 2
  %120 = add nsw i32 %115, %119
  %121 = getelementptr inbounds nuw i8, ptr %0, i64 124
  %122 = load i32, ptr %121, align 4, !tbaa !12
  %123 = add nsw i32 %122, 2
  %124 = ashr i32 %123, 2
  %125 = add nsw i32 %120, %124
  store i32 %125, ptr %75, align 4, !tbaa !12
  %126 = getelementptr inbounds nuw i8, ptr %0, i64 128
  %127 = load i32, ptr %126, align 4, !tbaa !12
  %128 = ashr i32 %127, 1
  %129 = getelementptr inbounds nuw i8, ptr %0, i64 132
  %130 = load i32, ptr %129, align 4, !tbaa !12
  %131 = ashr i32 %130, 1
  %132 = add nsw i32 %131, %128
  store i32 %132, ptr %77, align 4, !tbaa !12
  ret void
}